; Function Attrs: mustprogress uwtable
define hidden noundef ptr @_ZN6spacer11mk_zk_constER11ast_managerjP4sort(ptr noundef nonnull align 8 dereferenceable(976) %m, i32 noundef %idx, ptr noundef %s) local_unnamed_addr #3 personality ptr @__gxx_personality_v0 {
entry:
  %name = alloca %"class.std::__cxx11::basic_stringstream", align 8
  %ref.tmp = alloca %class.symbol, align 8
  %ref.tmp3 = alloca %"class.std::__cxx11::basic_string", align 8
  call void @_ZNSt7__cxx1118basic_stringstreamIcSt11char_traitsIcESaIcEEC1Ev(ptr noundef nonnull align 8 dereferenceable(128) %name)
  %add.ptr = getelementptr inbounds i8, ptr %name, i64 16
  %call = invoke noundef nonnull align 8 dereferenceable(8) ptr @_ZStlsISt11char_traitsIcEERSt13basic_ostreamIcT_ES5_PKc(ptr noundef nonnull align 8 dereferenceable(8) %add.ptr, ptr noundef nonnull @.str.7)
          to label %invoke.cont unwind label %lpad

invoke.cont:                                      ; preds = %entry
  %call2 = invoke noundef nonnull align 8 dereferenceable(8) ptr @_ZNSolsEj(ptr noundef nonnull align 8 dereferenceable(8) %call, i32 noundef %idx)
          to label %invoke.cont1 unwind label %lpad

invoke.cont1:                                     ; preds = %invoke.cont
  invoke void @_ZNKSt7__cxx1118basic_stringstreamIcSt11char_traitsIcESaIcEE3strEv(ptr nonnull sret(%"class.std::__cxx11::basic_string") align 8 %ref.tmp3, ptr noundef nonnull align 8 dereferenceable(128) %name)
          to label %invoke.cont4 unwind label %lpad

invoke.cont4:                                     ; preds = %invoke.cont1
  %call.i = call noundef ptr @_ZNKSt7__cxx1112basic_stringIcSt11char_traitsIcESaIcEE5c_strEv(ptr noundef nonnull align 8 dereferenceable(32) %ref.tmp3) #18
  invoke void @_ZN6symbolC2EPKc(ptr noundef nonnull align 8 dereferenceable(8) %ref.tmp, ptr noundef %call.i)
          to label %invoke.cont6 unwind label %lpad5

invoke.cont6:                                     ; preds = %invoke.cont4
  %call.i.i.i2 = invoke noundef ptr @_ZN11ast_manager12mk_func_declERK6symboljPKP4sortS4_P14func_decl_info(ptr noundef nonnull align 8 dereferenceable(976) %m, ptr noundef nonnull align 8 dereferenceable(8) %ref.tmp, i32 noundef 0, ptr noundef null, ptr noundef %s, ptr noundef null)
          to label %call.i.i.i.noexc unwind label %lpad5

call.i.i.i.noexc:                                 ; preds = %invoke.cont6
  %call.i.i3 = invoke noundef ptr @_ZN11ast_manager6mk_appEP9func_decljPKP4expr(ptr noundef nonnull align 8 dereferenceable(976) %m, ptr noundef %call.i.i.i2, i32 noundef 0, ptr noundef null)
          to label %invoke.cont7 unwind label %lpad5

invoke.cont7:                                     ; preds = %call.i.i.i.noexc
  call void @_ZNSt7__cxx1112basic_stringIcSt11char_traitsIcESaIcEED1Ev(ptr noundef nonnull align 8 dereferenceable(32) %ref.tmp3) #18
  call void @_ZNSt7__cxx1118basic_stringstreamIcSt11char_traitsIcESaIcEED1Ev(ptr noundef nonnull align 8 dereferenceable(128) %name) #18
  ret ptr %call.i.i3

lpad:                                             ; preds = %invoke.cont1, %invoke.cont, %entry
  %0 = landingpad { ptr, i32 }
          cleanup
  br label %ehcleanup

lpad5:                                            ; preds = %call.i.i.i.noexc, %invoke.cont6, %invoke.cont4
  %1 = landingpad { ptr, i32 }
          cleanup
  call void @_ZNSt7__cxx1112basic_stringIcSt11char_traitsIcESaIcEED1Ev(ptr noundef nonnull align 8 dereferenceable(32) %ref.tmp3) #18
  br label %ehcleanup

ehcleanup:                                        ; preds = %lpad5, %lpad
  %.pn = phi { ptr, i32 } [ %1, %lpad5 ], [ %0, %lpad ]
  call void @_ZNSt7__cxx1118basic_stringstreamIcSt11char_traitsIcESaIcEED1Ev(ptr noundef nonnull align 8 dereferenceable(128) %name) #18
  resume { ptr, i32 } %.pn
}